ccopy_reg
_reconstructor
p1
(csklearn.linear_model.logistic
LogisticRegression
p2
c__builtin__
object
p3
NtRp4
(dp5
S'warm_start'
p6
I00
sS'C'
F1
sS'n_jobs'
p7
I1
sS'verbose'
p8
I0
sS'fit_intercept'
p9
I01
sS'solver'
p10
S'liblinear'
p11
sS'classes_'
p12
cnumpy.core.multiarray
_reconstruct
p13
(cnumpy
ndarray
p14
(I0
tS'b'
tRp15
(I1
(L2L
tcnumpy
dtype
p16
(S'O8'
I0
I1
tRp17
(I3
S'|'
NNNI-1
I-1
I63
tbI00
(lp18
S'NO'
p19
aS'YES'
p20
atbsS'n_iter_'
p21
g13
(g14
(I0
tS'b'
tRp22
(I1
(L1L
tg16
(S'i4'
I0
I1
tRp23
(I3
S'<'
NNNI-1
I-1
I0
tbI00
S'\r\x00\x00\x00'
tbsS'intercept_scaling'
p24
I1
sS'penalty'
p25
S'l2'
p26
sS'multi_class'
p27
S'ovr'
p28
sS'random_state'
p29
NsS'_sklearn_version'
p30
S'0.19.1'
p31
sS'dual'
p32
I00
sS'tol'
p33
F0.0001
sS'coef_'
p34
g13
(g14
(I0
tS'b'
tRp35
(I1
(L1L
L2L
tg16
(S'f8'
I0
I1
tRp36
(I3
S'<'
NNNI-1
I-1
I0
tbI00
S'-\xe7M\xf4h\x00\xda\xbfH2\xdcU\xd9\x9f\xf8?'
tbsS'intercept_'
p37
g13
(g14
(I0
tS'b'
tRp38
(I1
(L1L
tg36
I00
S'=\x99\xf0s\x8aX\x04\xc0'
tbsS'max_iter'
p39
I100
sS'class_weight'
p40
Nsb.